; Function Attrs: mustprogress nounwind uwtable
define internal fastcc void @_ZN12_GLOBAL__N_116FunctionCompiler20compileExtractLaneOpEN8WasmEdge4LLVM4TypeEj(ptr noundef nonnull readonly align 8 captures(none) dereferenceable(200) %0, i64 %.0.val, i32 noundef range(i32 0, 256) %1) unnamed_addr #0 align 2 {
  %3 = getelementptr inbounds nuw i8, ptr %0, i64 192
  %4 = getelementptr inbounds nuw i8, ptr %0, i64 48
  %5 = load ptr, ptr %4, align 8
  %6 = getelementptr inbounds i8, ptr %5, i64 -8
  %7 = load i64, ptr %6, align 8
  %8 = inttoptr i64 %7 to ptr
  %9 = inttoptr i64 %.0.val to ptr
  %10 = load ptr, ptr %3, align 8, !noalias !4290
  %11 = tail call ptr @LLVMBuildBitCast(ptr noundef %10, ptr noundef %8, ptr noundef %9, ptr noundef nonnull @.str.11) #16, !noalias !4290
  %12 = getelementptr inbounds nuw i8, ptr %0, i64 8
  %13 = zext nneg i32 %1 to i64
  %14 = load ptr, ptr %12, align 8, !noalias !4293
  %15 = tail call ptr @LLVMInt64TypeInContext(ptr noundef %14) #16, !noalias !4293
  %16 = tail call ptr @LLVMConstInt(ptr noundef %15, i64 noundef %13, i32 noundef 0) #16, !noalias !4298
  %17 = load ptr, ptr %3, align 8, !noalias !4301
  %18 = tail call ptr @LLVMBuildExtractElement(ptr noundef %17, ptr noundef %11, ptr noundef %16, ptr noundef nonnull @.str.11) #16, !noalias !4301
  %19 = load ptr, ptr %4, align 8
  %20 = getelementptr inbounds i8, ptr %19, i64 -8
  store ptr %18, ptr %20, align 8
  ret void
}